; Function Attrs: mustprogress nounwind uwtable
define internal fastcc void @_ZL16visitKnownRecordIN4llvm8codeview14FrameCookieSymEENS0_5ErrorERNS1_8CVRecordINS1_10SymbolKindEEERNS1_22SymbolVisitorCallbacksE(ptr dead_on_unwind noalias writable align 8 %0, ptr noundef nonnull align 8 dereferenceable(16) %1, ptr noundef nonnull align 8 dereferenceable(8) %2) unnamed_addr #1 {
  %4 = alloca %"class.llvm::codeview::FrameCookieSym", align 4
  %5 = getelementptr inbounds nuw i8, ptr %1, i64 8
  %6 = load i64, ptr %5, align 8
  %7 = icmp ult i64 %6, 4
  br i1 %7, label %_ZNK4llvm8codeview8CVRecordINS0_10SymbolKindEE4kindEv.exit, label %8

8:                                                ; preds = %3
  %9 = load ptr, ptr %1, align 8
  %10 = getelementptr inbounds nuw i8, ptr %9, i64 2
  call void @llvm.assume(i1 true) [ "align"(ptr %10, i64 1) ]
  %.0.copyload.i.i.i.i = load i16, ptr %10, align 1
  br label %_ZNK4llvm8codeview8CVRecordINS0_10SymbolKindEE4kindEv.exit

_ZNK4llvm8codeview8CVRecordINS0_10SymbolKindEE4kindEv.exit: ; preds = %3, %8
  %.0.i = phi i16 [ %.0.copyload.i.i.i.i, %8 ], [ 0, %3 ]
  store i16 %.0.i, ptr %4, align 4
  %11 = getelementptr inbounds nuw i8, ptr %4, i64 4
  store i32 0, ptr %11, align 4
  %12 = getelementptr inbounds nuw i8, ptr %4, i64 8
  store i16 0, ptr %12, align 4
  %13 = getelementptr inbounds nuw i8, ptr %4, i64 11
  store i8 0, ptr %13, align 1
  %14 = getelementptr inbounds nuw i8, ptr %4, i64 12
  store i32 0, ptr %14, align 4
  %15 = load ptr, ptr %2, align 8
  %16 = getelementptr inbounds i8, ptr %15, i64 280
  %17 = load ptr, ptr %16, align 8
  call void %17(ptr dead_on_unwind writable sret(%"class.llvm::Error") align 8 %0, ptr noundef nonnull align 8 dereferenceable(8) %2, ptr noundef nonnull align 8 dereferenceable(16) %1, ptr noundef nonnull align 4 dereferenceable(16) %4) #13
  ret void
}